;
; Definition file of libconfig.dll
; Automatic generated by gendef
; written by Kai Tietz 2008
;
LIBRARY "libconfig.dll"
EXPORTS
_GCC_specific_handler
_Unwind_Backtrace
_Unwind_DeleteException
_Unwind_FindEnclosingFunction
_Unwind_ForcedUnwind
_Unwind_GetCFA
_Unwind_GetDataRelBase
_Unwind_GetGR
_Unwind_GetIP
_Unwind_GetIPInfo
_Unwind_GetLanguageSpecificData
_Unwind_GetRegionStart
_Unwind_GetTextRelBase
_Unwind_RaiseException
_Unwind_Resume
_Unwind_Resume_or_Rethrow
_Unwind_SetGR
_Unwind_SetIP
_Z11Msg2LogfileRKNSt7__cxx1112basic_stringIcSt11char_traitsIcESaIcEEES6_m
_Z17ReadRegistryValueINSt7__cxx1112basic_stringIcSt11char_traitsIcESaIcEEEET_P6HKEY__RKS5_S5_
_Z17ReadRegistryValueIdET_P6HKEY__RKNSt7__cxx1112basic_stringIcSt11char_traitsIcESaIcEEES8_
_Z17ReadRegistryValueIhET_P6HKEY__RKNSt7__cxx1112basic_stringIcSt11char_traitsIcESaIcEEES8_
_Z17ReadRegistryValueIiET_P6HKEY__RKNSt7__cxx1112basic_stringIcSt11char_traitsIcESaIcEEES8_
_Z18WriteRegistryValueINSt7__cxx1112basic_stringIcSt11char_traitsIcESaIcEEEEbRKP6HKEY__RKS5_S5_T_
_Z18WriteRegistryValueIPKcEbRKP6HKEY__RKNSt7__cxx1112basic_stringIcSt11char_traitsIcESaIcEEESB_T_
_Z18WriteRegistryValueIdEbRKP6HKEY__RKNSt7__cxx1112basic_stringIcSt11char_traitsIcESaIcEEES9_T_
_Z18WriteRegistryValueIhEbRKP6HKEY__RKNSt7__cxx1112basic_stringIcSt11char_traitsIcESaIcEEES9_T_
_Z18WriteRegistryValueIiEbRKP6HKEY__RKNSt7__cxx1112basic_stringIcSt11char_traitsIcESaIcEEES9_T_
_ZN3Log3logENSt7__cxx1112basic_stringIcSt11char_traitsIcESaIcEEERKS5_m
_ZN3Log5clearEv
_ZN6Config3GetIdEET_NSt7__cxx1112basic_stringIcSt11char_traitsIcESaIcEEE
_ZN6Config3GetIhEET_NSt7__cxx1112basic_stringIcSt11char_traitsIcESaIcEEE
_ZN6Config3GetIiEET_NSt7__cxx1112basic_stringIcSt11char_traitsIcESaIcEEE
_ZN6Config3SetIdEEvNSt7__cxx1112basic_stringIcSt11char_traitsIcESaIcEEET_
_ZN6Config3SetIhEEvNSt7__cxx1112basic_stringIcSt11char_traitsIcESaIcEEET_
_ZN6Config3SetIiEEvNSt7__cxx1112basic_stringIcSt11char_traitsIcESaIcEEET_
_ZN6Config6ExistsENSt7__cxx1112basic_stringIcSt11char_traitsIcESaIcEEE
_ZN8Registry4ReadIdEET_NSt7__cxx1112basic_stringIcSt11char_traitsIcESaIcEEE
_ZN8Registry4ReadIhEET_NSt7__cxx1112basic_stringIcSt11char_traitsIcESaIcEEE
_ZN8Registry4ReadIiEET_NSt7__cxx1112basic_stringIcSt11char_traitsIcESaIcEEE
_ZN8Registry5WriteIdEEbNSt7__cxx1112basic_stringIcSt11char_traitsIcESaIcEEET_
_ZN8Registry5WriteIhEEbNSt7__cxx1112basic_stringIcSt11char_traitsIcESaIcEEET_
_ZN8Registry5WriteIiEEbNSt7__cxx1112basic_stringIcSt11char_traitsIcESaIcEEET_
_ZN8Registry6ExistsENSt7__cxx1112basic_stringIcSt11char_traitsIcESaIcEEE
_ZN9Parameter10StoreValueIdEEvRKNSt7__cxx1112basic_stringIcSt11char_traitsIcESaIcEEERT_
_ZN9Parameter10StoreValueIhEEvRKNSt7__cxx1112basic_stringIcSt11char_traitsIcESaIcEEERT_
_ZN9Parameter10StoreValueIiEEvRKNSt7__cxx1112basic_stringIcSt11char_traitsIcESaIcEEERT_
_ZN9Parameter4LoadEv
_ZN9Parameter5StoreEv
_ZN9Parameter9LoadValueIdEEvRKNSt7__cxx1112basic_stringIcSt11char_traitsIcESaIcEEERT_
_ZN9Parameter9LoadValueIhEEvRKNSt7__cxx1112basic_stringIcSt11char_traitsIcESaIcEEERT_
_ZN9Parameter9LoadValueIiEEvRKNSt7__cxx1112basic_stringIcSt11char_traitsIcESaIcEEERT_
_ZN9__gnu_cxx11char_traitsIcE2eqERKcS3_
_ZN9__gnu_cxx11char_traitsIcE6lengthEPKc
_ZNSt11char_traitsIcE6lengthEPKc
_ZNSt15__new_allocatorIcED2Ev
_ZNSt7__cxx1112basic_stringIcSt11char_traitsIcESaIcEE12_Alloc_hiderD1Ev
_ZNSt7__cxx1112basic_stringIcSt11char_traitsIcESaIcEE12_M_constructIPKcEEvT_S8_St20forward_iterator_tag
_ZNSt7__cxx1112basic_stringIcSt11char_traitsIcESaIcEEC1IS3_EEPKcRKS3_
_ZSt23__is_constant_evaluatedv
_ZStorSt13_Ios_OpenmodeS_
_ZTI15ConfigException DATA
_ZTS15ConfigException DATA
_ZZNSt7__cxx1112basic_stringIcSt11char_traitsIcESaIcEE12_M_constructIPKcEEvT_S8_St20forward_iterator_tagEN6_GuardC1EPS4_
_ZZNSt7__cxx1112basic_stringIcSt11char_traitsIcESaIcEE12_M_constructIPKcEEvT_S8_St20forward_iterator_tagEN6_GuardD1Ev
__emutls_get_address
__emutls_register_common
