;
; Definition file of libmodio.dll
; Automatic generated by gendef
; written by Kai Tietz 2008
;
LIBRARY "libmodio.dll"
EXPORTS
_GCC_specific_handler
_Unwind_Backtrace
_Unwind_DeleteException
_Unwind_FindEnclosingFunction
_Unwind_ForcedUnwind
_Unwind_GetCFA
_Unwind_GetDataRelBase
_Unwind_GetGR
_Unwind_GetIP
_Unwind_GetIPInfo
_Unwind_GetLanguageSpecificData
_Unwind_GetRegionStart
_Unwind_GetTextRelBase
_Unwind_RaiseException
_Unwind_Resume
_Unwind_Resume_or_Rethrow
_Unwind_SetGR
_Unwind_SetIP
_Z11ConvertTo2Kff
_Z13ConvertFrom2Ktf
_ZN5modio10ReadAnalogEi
_ZN5modio11WriteAnalogEif
_ZN5modio12GetBitStatusEi
_ZN5modio12ReadRegisterEi
_ZN5modio13WriteRegisterEit
_ZN5modio6DelBitEi
_ZN5modio6GetBitEi
_ZN5modio6SetBitEi
_ZN6Modbus2IO10readAnalogEiPfi
_ZN6Modbus2IO11writeAnalogEiPfi
_ZN6Modbus2IO11writeAnalogEif
_ZN6Modbus2IO13readRegistersEiPti
_ZN6Modbus2IO13writeRegisterEiRKt
_ZN6Modbus2IO14writeRegistersEiPti
_ZN6Modbus2IO8readBitsEiPhi
_ZN6Modbus2IO8writeBitEiRKb
_ZN6Modbus2IO9writeBitsEiPbi
_ZN6Modbus2IOC1EPKci
_ZN6Modbus2IOC2EPKci
_ZN6Modbus2IOD1Ev
_ZN6Modbus2IOD2Ev
_ZN6Modbus7bitViewEt
_ZSt3absf
_ZTIN6Modbus9ExceptionE DATA
_ZTSN6Modbus9ExceptionE DATA
__emutls_get_address
__emutls_register_common
